ccopy_reg
_reconstructor
p0
(cgoogle.oauth2.credentials
Credentials
p1
c__builtin__
object
p2
Ntp3
Rp4
(dp5
S'_token_uri'
p6
Vhttps://oauth2.googleapis.com/token
p7
sS'_scopes'
p8
(lp9
S'https://www.googleapis.com/auth/drive.metadata.readonly'
p10
aS'https://www.googleapis.com/auth/drive.file'
p11
aS'https://www.googleapis.com/auth/drive'
p12
aS'https://www.googleapis.com/auth/spreadsheets'
p13
asS'_id_token'
p14
NsS'token'
p15
Vya29.Gl36Bpec8SwN3DLSWIas3cyGeHsnHilpHRtyLRB_yj77gLS6psG0_xh0TyDot8L7sE6-v2OP2sAqddxbYH6bbIjz1cbKz2AuyWiCw6pqwyA0lXXs6b_cEWLNSjc2cSU
p16
sS'_refresh_token'
p17
V1/ybJgcwf3W-7T0VPvfEfCubz8H5yMlVAqZ9fN_c2EMFo
p18
sS'_client_secret'
p19
V3stSIDrcx9QeLmzIfOeoTlH6
p20
sS'_client_id'
p21
V625252460448-toqb918d48ucoahpuota8dpgdajk94ad.apps.googleusercontent.com
p22
sS'expiry'
p23
cdatetime
datetime
p24
(S'\x07\xe3\x04\x1d\x02\x1b \x0e]p'
p25
tp26
Rp27
sb.